target datalayout = "e-m:e-p270:32:32-p271:32:32-p272:64:64-i64:64-i128:128-f80:128-n8:16:32:64-S128"
target triple = "x86_64-pc-linux-gnu"

%struct.CompoundAffixFlag = type { %union.anon.1, i32, i32 }
%union.anon.1 = type { ptr }

; Function Attrs: nounwind uwtable
define internal i32 @cmpcmdflag(ptr noundef %0, ptr noundef %1) #0 {
  %3 = alloca i32, align 4
  %4 = alloca ptr, align 8
  %5 = alloca ptr, align 8
  %6 = alloca ptr, align 8
  %7 = alloca ptr, align 8
  %8 = alloca i32, align 4
  store ptr %0, ptr %4, align 8
  store ptr %1, ptr %5, align 8
  call void @llvm.lifetime.start.p0(i64 8, ptr %6) #11
  %9 = load ptr, ptr %4, align 8
  store ptr %9, ptr %6, align 8
  call void @llvm.lifetime.start.p0(i64 8, ptr %7) #11
  %10 = load ptr, ptr %5, align 8
  store ptr %10, ptr %7, align 8
  %11 = load ptr, ptr %6, align 8
  %12 = getelementptr inbounds nuw %struct.CompoundAffixFlag, ptr %11, i32 0, i32 1
  %13 = load i32, ptr %12, align 8
  %14 = icmp eq i32 %13, 2
  br i1 %14, label %15, label %33

15:                                               ; preds = %2
  %16 = load ptr, ptr %6, align 8
  %17 = getelementptr inbounds nuw %struct.CompoundAffixFlag, ptr %16, i32 0, i32 0
  %18 = load i32, ptr %17, align 8
  %19 = load ptr, ptr %7, align 8
  %20 = getelementptr inbounds nuw %struct.CompoundAffixFlag, ptr %19, i32 0, i32 0
  %21 = load i32, ptr %20, align 8
  %22 = icmp eq i32 %18, %21
  br i1 %22, label %23, label %24

23:                                               ; preds = %15
  store i32 0, ptr %3, align 4
  store i32 1, ptr %8, align 4
  br label %41

24:                                               ; preds = %15
  %25 = load ptr, ptr %6, align 8
  %26 = getelementptr inbounds nuw %struct.CompoundAffixFlag, ptr %25, i32 0, i32 0
  %27 = load i32, ptr %26, align 8
  %28 = load ptr, ptr %7, align 8
  %29 = getelementptr inbounds nuw %struct.CompoundAffixFlag, ptr %28, i32 0, i32 0
  %30 = load i32, ptr %29, align 8
  %31 = icmp ugt i32 %27, %30
  %32 = select i1 %31, i32 1, i32 -1
  store i32 %32, ptr %3, align 4
  store i32 1, ptr %8, align 4
  br label %41

33:                                               ; preds = %2
  %34 = load ptr, ptr %6, align 8
  %35 = getelementptr inbounds nuw %struct.CompoundAffixFlag, ptr %34, i32 0, i32 0
  %36 = load ptr, ptr %35, align 8
  %37 = load ptr, ptr %7, align 8
  %38 = getelementptr inbounds nuw %struct.CompoundAffixFlag, ptr %37, i32 0, i32 0
  %39 = load ptr, ptr %38, align 8
  %40 = call i32 @strcmp(ptr noundef %36, ptr noundef %39) #14
  store i32 %40, ptr %3, align 4
  store i32 1, ptr %8, align 4
  br label %41

41:                                               ; preds = %33, %24, %23
  call void @llvm.lifetime.end.p0(i64 8, ptr %7) #11
  call void @llvm.lifetime.end.p0(i64 8, ptr %6) #11
  %42 = load i32, ptr %3, align 4
  ret i32 %42
}