; Function Attrs: mustprogress nofree nounwind willreturn memory(read, inaccessiblemem: none) uwtable
define internal i32 @cmpcmdflag(ptr noundef readonly captures(none) %0, ptr noundef readonly captures(none) %1) #8 {
  %3 = getelementptr inbounds nuw i8, ptr %0, i64 8
  %4 = load i32, ptr %3, align 8
  %5 = icmp eq i32 %4, 2
  br i1 %5, label %6, label %13

6:                                                ; preds = %2
  %7 = load i32, ptr %0, align 8
  %8 = load i32, ptr %1, align 8
  %9 = icmp eq i32 %7, %8
  br i1 %9, label %17, label %10

10:                                               ; preds = %6
  %11 = icmp ugt i32 %7, %8
  %12 = select i1 %11, i32 1, i32 -1
  br label %17

13:                                               ; preds = %2
  %14 = load ptr, ptr %0, align 8
  %15 = load ptr, ptr %1, align 8
  %16 = tail call i32 @strcmp(ptr noundef nonnull dereferenceable(1) %14, ptr noundef nonnull dereferenceable(1) %15) #17
  br label %17

17:                                               ; preds = %6, %13, %10
  %.0 = phi i32 [ %12, %10 ], [ %16, %13 ], [ 0, %6 ]
  ret i32 %.0
}